target datalayout = "e-m:e-p270:32:32-p271:32:32-p272:64:64-i64:64-i128:128-f80:128-n8:16:32:64-S128"
target triple = "x86_64-pc-linux-gnu"

; Function Attrs: nounwind uwtable
define float @Saig_ManComputeProbOnePlus(i32 noundef %0, i32 noundef %1, i32 noundef %2) #0 {
  %4 = alloca float, align 4
  %5 = alloca i32, align 4
  %6 = alloca i32, align 4
  %7 = alloca i32, align 4
  %8 = alloca i32, align 4
  %9 = alloca i32, align 4
  store i32 %0, ptr %5, align 4, !tbaa !10
  store i32 %1, ptr %6, align 4, !tbaa !10
  store i32 %2, ptr %7, align 4, !tbaa !10
  call void @llvm.lifetime.start.p0(i64 4, ptr %8) #9
  %10 = load i32, ptr %6, align 4, !tbaa !10
  %11 = mul nsw i32 32, %10
  store i32 %11, ptr %8, align 4, !tbaa !10
  %12 = load i32, ptr %7, align 4, !tbaa !10
  %13 = icmp ne i32 %12, 0
  br i1 %13, label %14, label %22

14:                                               ; preds = %3
  %15 = load i32, ptr %8, align 4, !tbaa !10
  %16 = load i32, ptr %5, align 4, !tbaa !10
  %17 = sub nsw i32 %15, %16
  %18 = sitofp i32 %17 to float
  %19 = load i32, ptr %8, align 4, !tbaa !10
  %20 = sitofp i32 %19 to float
  %21 = fdiv float %18, %20
  store float %21, ptr %4, align 4
  store i32 1, ptr %9, align 4
  br label %28

22:                                               ; preds = %3
  %23 = load i32, ptr %5, align 4, !tbaa !10
  %24 = sitofp i32 %23 to float
  %25 = load i32, ptr %8, align 4, !tbaa !10
  %26 = sitofp i32 %25 to float
  %27 = fdiv float %24, %26
  store float %27, ptr %4, align 4
  store i32 1, ptr %9, align 4
  br label %28

28:                                               ; preds = %22, %14
  call void @llvm.lifetime.end.p0(i64 4, ptr %8) #9
  %29 = load float, ptr %4, align 4
  ret float %29
}