; Function Attrs: mustprogress nofree norecurse nosync nounwind willreturn memory(none) uwtable
define float @Saig_ManComputeProbOnePlus(i32 noundef %0, i32 noundef %1, i32 noundef %2) local_unnamed_addr #5 {
  %4 = shl nsw i32 %1, 5
  %.not = icmp eq i32 %2, 0
  %5 = sub nsw i32 %4, %0
  %.sink8 = select i1 %.not, i32 %0, i32 %5
  %6 = sitofp i32 %.sink8 to float
  %7 = sitofp i32 %4 to float
  %8 = fdiv float %6, %7
  ret float %8
}